; Function Attrs: nounwind uwtable
define dso_local range(i32 1, -1) i32 @fdt_address_cells(ptr noundef %0, i32 noundef %1) local_unnamed_addr #0 {
  %3 = alloca i32, align 4
  call void @llvm.lifetime.start.p0(i64 4, ptr nonnull %3) #5
  store i32 0, ptr %3, align 4, !annotation !4
  %4 = call ptr @fdt_getprop(ptr noundef %0, i32 noundef %1, ptr noundef nonnull @.str, ptr noundef nonnull %3) #5
  %.not.i = icmp eq ptr %4, null
  %5 = load i32, ptr %3, align 4
  br i1 %.not.i, label %fdt_cells.exit, label %6

6:                                                ; preds = %2
  %.not9.i = icmp eq i32 %5, 4
  br i1 %.not9.i, label %7, label %fdt_cells.exit.thread

7:                                                ; preds = %6
  %8 = load i32, ptr %4, align 4
  %rev.i.i = call noundef i32 @llvm.bswap.i32(i32 %8)
  %9 = icmp ugt i32 %rev.i.i, 4
  br i1 %9, label %fdt_cells.exit.thread, label %fdt_cells.exit

fdt_cells.exit.thread:                            ; preds = %6, %7
  call void @llvm.lifetime.end.p0(i64 4, ptr nonnull %3) #5
  br label %12

fdt_cells.exit:                                   ; preds = %7, %2
  %.0.i = phi i32 [ %rev.i.i, %7 ], [ %5, %2 ]
  call void @llvm.lifetime.end.p0(i64 4, ptr nonnull %3) #5
  switch i32 %.0.i, label %11 [
    i32 0, label %12
    i32 -1, label %10
  ]

10:                                               ; preds = %fdt_cells.exit
  br label %12

11:                                               ; preds = %fdt_cells.exit
  br label %12

12:                                               ; preds = %fdt_cells.exit.thread, %fdt_cells.exit, %11, %10
  %.0 = phi i32 [ 2, %10 ], [ -14, %fdt_cells.exit ], [ -14, %fdt_cells.exit.thread ], [ %.0.i, %11 ]
  ret i32 %.0
}